target datalayout = "e-m:e-p270:32:32-p271:32:32-p272:64:64-i64:64-i128:128-f80:128-n8:16:32:64-S128"
target triple = "x86_64-pc-linux-gnu"

%struct.lxb_html_token_t = type { ptr, ptr, i64, i64, ptr, ptr, ptr, ptr, ptr, i64, i64, i32 }
%struct.lxb_html_token_attr = type { ptr, ptr, ptr, ptr, ptr, ptr, i64, ptr, ptr, i32 }
%struct.lxb_dom_attr_data_t = type { %struct.lexbor_hash_entry, i64, i64, i8 }
%struct.lexbor_hash_entry = type { %union.anon, i64, ptr }
%union.anon = type { ptr, [16 x i8] }
%struct.lxb_html_tokenizer = type { ptr, ptr, ptr, ptr, ptr, ptr, ptr, ptr, ptr, ptr, ptr, ptr, ptr, ptr, ptr, i64, ptr, ptr, ptr, ptr, ptr, i64, i64, ptr, ptr, i64, i64, i32, i32, i8, i32, i32, i8, ptr, i64 }

; Function Attrs: nounwind uwtable
define hidden ptr @lxb_html_token_find_attr(ptr noundef %0, ptr noundef %1, ptr noundef %2, i64 noundef %3) #0 {
  %5 = alloca ptr, align 8
  %6 = alloca ptr, align 8
  %7 = alloca ptr, align 8
  %8 = alloca ptr, align 8
  %9 = alloca i64, align 8
  %10 = alloca ptr, align 8
  %11 = alloca ptr, align 8
  store ptr %0, ptr %6, align 8
  store ptr %1, ptr %7, align 8
  store ptr %2, ptr %8, align 8
  store i64 %3, ptr %9, align 8
  %12 = load ptr, ptr %7, align 8
  %13 = getelementptr inbounds %struct.lxb_html_token_t, ptr %12, i32 0, i32 6
  %14 = load ptr, ptr %13, align 8
  store ptr %14, ptr %11, align 8
  %15 = load ptr, ptr %6, align 8
  %16 = getelementptr inbounds %struct.lxb_html_tokenizer, ptr %15, i32 0, i32 5
  %17 = load ptr, ptr %16, align 8
  %18 = load ptr, ptr %8, align 8
  %19 = load i64, ptr %9, align 8
  %20 = call ptr @lxb_dom_attr_data_by_local_name(ptr noundef %17, ptr noundef %18, i64 noundef %19)
  store ptr %20, ptr %10, align 8
  %21 = load ptr, ptr %10, align 8
  %22 = icmp eq ptr %21, null
  br i1 %22, label %23, label %24

23:                                               ; preds = %4
  store ptr null, ptr %5, align 8
  br label %45

24:                                               ; preds = %4
  br label %25

25:                                               ; preds = %40, %24
  %26 = load ptr, ptr %11, align 8
  %27 = icmp ne ptr %26, null
  br i1 %27, label %28, label %44

28:                                               ; preds = %25
  %29 = load ptr, ptr %11, align 8
  %30 = getelementptr inbounds %struct.lxb_html_token_attr, ptr %29, i32 0, i32 4
  %31 = load ptr, ptr %30, align 8
  %32 = getelementptr inbounds %struct.lxb_dom_attr_data_t, ptr %31, i32 0, i32 1
  %33 = load i64, ptr %32, align 8
  %34 = load ptr, ptr %10, align 8
  %35 = getelementptr inbounds %struct.lxb_dom_attr_data_t, ptr %34, i32 0, i32 1
  %36 = load i64, ptr %35, align 8
  %37 = icmp eq i64 %33, %36
  br i1 %37, label %38, label %40

38:                                               ; preds = %28
  %39 = load ptr, ptr %11, align 8
  store ptr %39, ptr %5, align 8
  br label %45

40:                                               ; preds = %28
  %41 = load ptr, ptr %11, align 8
  %42 = getelementptr inbounds %struct.lxb_html_token_attr, ptr %41, i32 0, i32 7
  %43 = load ptr, ptr %42, align 8
  store ptr %43, ptr %11, align 8
  br label %25

44:                                               ; preds = %25
  store ptr null, ptr %5, align 8
  br label %45

45:                                               ; preds = %44, %38, %23
  %46 = load ptr, ptr %5, align 8
  ret ptr %46
}