; Function Attrs: nounwind uwtable
define hidden ptr @lxb_html_token_find_attr(ptr nocapture noundef readonly %0, ptr nocapture noundef readonly %1, ptr noundef %2, i64 noundef %3) local_unnamed_addr #0 {
  %5 = getelementptr inbounds i8, ptr %1, i64 48
  %6 = load ptr, ptr %5, align 8
  %7 = getelementptr inbounds i8, ptr %0, i64 40
  %8 = load ptr, ptr %7, align 8
  %9 = tail call ptr @lxb_dom_attr_data_by_local_name(ptr noundef %8, ptr noundef %2, i64 noundef %3) #8
  %10 = icmp eq ptr %9, null
  %.not11 = icmp eq ptr %6, null
  %or.cond = select i1 %10, i1 true, i1 %.not11
  br i1 %or.cond, label %.loopexit, label %.lr.ph

.lr.ph:                                           ; preds = %4
  %11 = getelementptr inbounds i8, ptr %9, i64 40
  %12 = load i64, ptr %11, align 8
  br label %13

13:                                               ; preds = %.lr.ph, %19
  %.012 = phi ptr [ %6, %.lr.ph ], [ %21, %19 ]
  %14 = getelementptr inbounds i8, ptr %.012, i64 32
  %15 = load ptr, ptr %14, align 8
  %16 = getelementptr inbounds i8, ptr %15, i64 40
  %17 = load i64, ptr %16, align 8
  %18 = icmp eq i64 %17, %12
  br i1 %18, label %.loopexit, label %19

19:                                               ; preds = %13
  %20 = getelementptr inbounds i8, ptr %.012, i64 56
  %21 = load ptr, ptr %20, align 8
  %.not = icmp eq ptr %21, null
  br i1 %.not, label %.loopexit, label %13

.loopexit:                                        ; preds = %13, %19, %4
  %.010 = phi ptr [ null, %4 ], [ %.012, %13 ], [ null, %19 ]
  ret ptr %.010
}